target datalayout = "e-m:e-p270:32:32-p271:32:32-p272:64:64-i64:64-i128:128-f80:128-n8:16:32:64-S128"
target triple = "x86_64-pc-linux-gnu"

%struct._zval_struct = type { %union._zend_value, %union.anon, %union.anon.2 }
%union._zend_value = type { i64 }
%union.anon = type { i32 }
%union.anon.2 = type { i32 }
%struct._zend_array = type { %struct._zend_refcounted_h, %union.anon.4, i32, %union.anon.6, i32, i32, i32, i32, i64, ptr }
%struct._zend_refcounted_h = type { i32, %union.anon.3 }
%union.anon.3 = type { i32 }
%union.anon.4 = type { i32 }
%union.anon.6 = type { ptr }
%struct.anon.0 = type { i8, i8, %union.anon.1 }
%union.anon.1 = type { i16 }
%struct._zend_string = type { %struct._zend_refcounted_h, i64, i64, [1 x i8] }
%struct.autoload_func_info = type { ptr, ptr, ptr, ptr }
%struct.anon.7 = type { i8, [3 x i8], i32, ptr, ptr, ptr, i32, i32, ptr, ptr, ptr, ptr, i32, ptr }
%struct._Bucket = type { %struct._zval_struct, i64, ptr }

@spl_autoload_functions = internal global ptr null, align 8

; Function Attrs: alwaysinline nounwind uwtable
define internal zeroext i1 @zend_string_equal_content(ptr noundef %0, ptr noundef %1) #4 {
  %3 = alloca ptr, align 8
  %4 = alloca ptr, align 8
  store ptr %0, ptr %3, align 8, !tbaa !53
  store ptr %1, ptr %4, align 8, !tbaa !53
  %5 = load ptr, ptr %3, align 8, !tbaa !53
  %6 = getelementptr inbounds nuw %struct._zend_string, ptr %5, i32 0, i32 2
  %7 = load i64, ptr %6, align 8, !tbaa !57
  %8 = load ptr, ptr %4, align 8, !tbaa !53
  %9 = getelementptr inbounds nuw %struct._zend_string, ptr %8, i32 0, i32 2
  %10 = load i64, ptr %9, align 8, !tbaa !57
  %11 = icmp eq i64 %7, %10
  br i1 %11, label %12, label %16

12:                                               ; preds = %2
  %13 = load ptr, ptr %3, align 8, !tbaa !53
  %14 = load ptr, ptr %4, align 8, !tbaa !53
  %15 = call zeroext i1 @zend_string_equal_val(ptr noundef %13, ptr noundef %14)
  br label %16

16:                                               ; preds = %12, %2
  %17 = phi i1 [ false, %2 ], [ %15, %12 ]
  ret i1 %17
}

; Function Attrs: alwaysinline nounwind uwtable
define internal zeroext i1 @zend_string_equals(ptr noundef %0, ptr noundef %1) #4 {
  %3 = alloca ptr, align 8
  %4 = alloca ptr, align 8
  store ptr %0, ptr %3, align 8, !tbaa !53
  store ptr %1, ptr %4, align 8, !tbaa !53
  %5 = load ptr, ptr %3, align 8, !tbaa !53
  %6 = load ptr, ptr %4, align 8, !tbaa !53
  %7 = icmp eq ptr %5, %6
  br i1 %7, label %12, label %8

8:                                                ; preds = %2
  %9 = load ptr, ptr %3, align 8, !tbaa !53
  %10 = load ptr, ptr %4, align 8, !tbaa !53
  %11 = call zeroext i1 @zend_string_equal_content(ptr noundef %9, ptr noundef %10)
  br label %12

12:                                               ; preds = %8, %2
  %13 = phi i1 [ true, %2 ], [ %11, %8 ]
  ret i1 %13
}

; Function Attrs: nounwind uwtable
define internal zeroext i1 @autoload_func_info_equals(ptr noundef %0, ptr noundef %1) #0 {
  %3 = alloca i1, align 1
  %4 = alloca ptr, align 8
  %5 = alloca ptr, align 8
  store ptr %0, ptr %4, align 8, !tbaa !61
  store ptr %1, ptr %5, align 8, !tbaa !61
  %6 = load ptr, ptr %4, align 8, !tbaa !61
  %7 = getelementptr inbounds nuw %struct.autoload_func_info, ptr %6, i32 0, i32 0
  %8 = load ptr, ptr %7, align 8, !tbaa !66
  %9 = getelementptr inbounds nuw %struct.anon.7, ptr %8, i32 0, i32 2
  %10 = load i32, ptr %9, align 4, !tbaa !13
  %11 = and i32 %10, 262144
  %12 = icmp ne i32 %11, 0
  br i1 %12, label %13, label %21

13:                                               ; preds = %2
  %14 = load ptr, ptr %5, align 8, !tbaa !61
  %15 = getelementptr inbounds nuw %struct.autoload_func_info, ptr %14, i32 0, i32 0
  %16 = load ptr, ptr %15, align 8, !tbaa !66
  %17 = getelementptr inbounds nuw %struct.anon.7, ptr %16, i32 0, i32 2
  %18 = load i32, ptr %17, align 4, !tbaa !13
  %19 = and i32 %18, 262144
  %20 = icmp ne i32 %19, 0
  br label %21

21:                                               ; preds = %13, %2
  %22 = phi i1 [ false, %2 ], [ %20, %13 ]
  %23 = xor i1 %22, true
  %24 = xor i1 %23, true
  %25 = zext i1 %24 to i32
  %26 = sext i32 %25 to i64
  %27 = call i64 @llvm.expect.i64(i64 %26, i64 0)
  %28 = icmp ne i64 %27, 0
  br i1 %28, label %29, label %67

29:                                               ; preds = %21
  %30 = load ptr, ptr %4, align 8, !tbaa !61
  %31 = getelementptr inbounds nuw %struct.autoload_func_info, ptr %30, i32 0, i32 1
  %32 = load ptr, ptr %31, align 8, !tbaa !70
  %33 = load ptr, ptr %5, align 8, !tbaa !61
  %34 = getelementptr inbounds nuw %struct.autoload_func_info, ptr %33, i32 0, i32 1
  %35 = load ptr, ptr %34, align 8, !tbaa !70
  %36 = icmp eq ptr %32, %35
  br i1 %36, label %37, label %65

37:                                               ; preds = %29
  %38 = load ptr, ptr %4, align 8, !tbaa !61
  %39 = getelementptr inbounds nuw %struct.autoload_func_info, ptr %38, i32 0, i32 3
  %40 = load ptr, ptr %39, align 8, !tbaa !71
  %41 = load ptr, ptr %5, align 8, !tbaa !61
  %42 = getelementptr inbounds nuw %struct.autoload_func_info, ptr %41, i32 0, i32 3
  %43 = load ptr, ptr %42, align 8, !tbaa !71
  %44 = icmp eq ptr %40, %43
  br i1 %44, label %45, label %65

45:                                               ; preds = %37
  %46 = load ptr, ptr %4, align 8, !tbaa !61
  %47 = getelementptr inbounds nuw %struct.autoload_func_info, ptr %46, i32 0, i32 2
  %48 = load ptr, ptr %47, align 8, !tbaa !91
  %49 = load ptr, ptr %5, align 8, !tbaa !61
  %50 = getelementptr inbounds nuw %struct.autoload_func_info, ptr %49, i32 0, i32 2
  %51 = load ptr, ptr %50, align 8, !tbaa !91
  %52 = icmp eq ptr %48, %51
  br i1 %52, label %53, label %65

53:                                               ; preds = %45
  %54 = load ptr, ptr %4, align 8, !tbaa !61
  %55 = getelementptr inbounds nuw %struct.autoload_func_info, ptr %54, i32 0, i32 0
  %56 = load ptr, ptr %55, align 8, !tbaa !66
  %57 = getelementptr inbounds nuw %struct.anon.7, ptr %56, i32 0, i32 3
  %58 = load ptr, ptr %57, align 8, !tbaa !13
  %59 = load ptr, ptr %5, align 8, !tbaa !61
  %60 = getelementptr inbounds nuw %struct.autoload_func_info, ptr %59, i32 0, i32 0
  %61 = load ptr, ptr %60, align 8, !tbaa !66
  %62 = getelementptr inbounds nuw %struct.anon.7, ptr %61, i32 0, i32 3
  %63 = load ptr, ptr %62, align 8, !tbaa !13
  %64 = call zeroext i1 @zend_string_equals(ptr noundef %58, ptr noundef %63)
  br label %65

65:                                               ; preds = %53, %45, %37, %29
  %66 = phi i1 [ false, %45 ], [ false, %37 ], [ false, %29 ], [ %64, %53 ]
  store i1 %66, ptr %3, align 1
  br label %101

67:                                               ; preds = %21
  %68 = load ptr, ptr %4, align 8, !tbaa !61
  %69 = getelementptr inbounds nuw %struct.autoload_func_info, ptr %68, i32 0, i32 0
  %70 = load ptr, ptr %69, align 8, !tbaa !66
  %71 = load ptr, ptr %5, align 8, !tbaa !61
  %72 = getelementptr inbounds nuw %struct.autoload_func_info, ptr %71, i32 0, i32 0
  %73 = load ptr, ptr %72, align 8, !tbaa !66
  %74 = icmp eq ptr %70, %73
  br i1 %74, label %75, label %99

75:                                               ; preds = %67
  %76 = load ptr, ptr %4, align 8, !tbaa !61
  %77 = getelementptr inbounds nuw %struct.autoload_func_info, ptr %76, i32 0, i32 1
  %78 = load ptr, ptr %77, align 8, !tbaa !70
  %79 = load ptr, ptr %5, align 8, !tbaa !61
  %80 = getelementptr inbounds nuw %struct.autoload_func_info, ptr %79, i32 0, i32 1
  %81 = load ptr, ptr %80, align 8, !tbaa !70
  %82 = icmp eq ptr %78, %81
  br i1 %82, label %83, label %99

83:                                               ; preds = %75
  %84 = load ptr, ptr %4, align 8, !tbaa !61
  %85 = getelementptr inbounds nuw %struct.autoload_func_info, ptr %84, i32 0, i32 3
  %86 = load ptr, ptr %85, align 8, !tbaa !71
  %87 = load ptr, ptr %5, align 8, !tbaa !61
  %88 = getelementptr inbounds nuw %struct.autoload_func_info, ptr %87, i32 0, i32 3
  %89 = load ptr, ptr %88, align 8, !tbaa !71
  %90 = icmp eq ptr %86, %89
  br i1 %90, label %91, label %99

91:                                               ; preds = %83
  %92 = load ptr, ptr %4, align 8, !tbaa !61
  %93 = getelementptr inbounds nuw %struct.autoload_func_info, ptr %92, i32 0, i32 2
  %94 = load ptr, ptr %93, align 8, !tbaa !91
  %95 = load ptr, ptr %5, align 8, !tbaa !61
  %96 = getelementptr inbounds nuw %struct.autoload_func_info, ptr %95, i32 0, i32 2
  %97 = load ptr, ptr %96, align 8, !tbaa !91
  %98 = icmp eq ptr %94, %97
  br label %99

99:                                               ; preds = %91, %83, %75, %67
  %100 = phi i1 [ false, %83 ], [ false, %75 ], [ false, %67 ], [ %98, %91 ]
  store i1 %100, ptr %3, align 1
  br label %101

101:                                              ; preds = %99, %65
  %102 = load i1, ptr %3, align 1
  ret i1 %102
}

; Function Attrs: alwaysinline nounwind uwtable
define internal zeroext i8 @zval_get_type(ptr noundef %0) #4 {
  %2 = alloca ptr, align 8
  store ptr %0, ptr %2, align 8, !tbaa !9
  %3 = load ptr, ptr %2, align 8, !tbaa !9
  %4 = getelementptr inbounds nuw %struct._zval_struct, ptr %3, i32 0, i32 1
  %5 = getelementptr inbounds nuw %struct.anon.0, ptr %4, i32 0, i32 0
  %6 = load i8, ptr %5, align 8, !tbaa !13
  ret i8 %6
}

; Function Attrs: nounwind uwtable
define internal ptr @spl_find_registered_function(ptr noundef %0) #0 {
  %2 = alloca ptr, align 8
  %3 = alloca ptr, align 8
  %4 = alloca ptr, align 8
  %5 = alloca ptr, align 8
  %6 = alloca ptr, align 8
  %7 = alloca ptr, align 8
  %8 = alloca ptr, align 8
  %9 = alloca i32, align 4
  store ptr %0, ptr %3, align 8, !tbaa !61
  %10 = load ptr, ptr @spl_autoload_functions, align 8, !tbaa !52
  %11 = icmp ne ptr %10, null
  br i1 %11, label %13, label %12

12:                                               ; preds = %1
  store ptr null, ptr %2, align 8
  br label %75

13:                                               ; preds = %1
  call void @llvm.lifetime.start.p0(i64 8, ptr %4) #12
  br label %14

14:                                               ; preds = %13
  call void @llvm.lifetime.start.p0(i64 8, ptr %5) #12
  %15 = load ptr, ptr @spl_autoload_functions, align 8, !tbaa !52
  store ptr %15, ptr %5, align 8, !tbaa !52
  call void @llvm.lifetime.start.p0(i64 8, ptr %6) #12
  %16 = load ptr, ptr %5, align 8, !tbaa !52
  %17 = getelementptr inbounds nuw %struct._zend_array, ptr %16, i32 0, i32 3
  %18 = load ptr, ptr %17, align 8, !tbaa !13
  %19 = getelementptr inbounds %struct._Bucket, ptr %18, i64 0
  store ptr %19, ptr %6, align 8, !tbaa !105
  call void @llvm.lifetime.start.p0(i64 8, ptr %7) #12
  %20 = load ptr, ptr %5, align 8, !tbaa !52
  %21 = getelementptr inbounds nuw %struct._zend_array, ptr %20, i32 0, i32 3
  %22 = load ptr, ptr %21, align 8, !tbaa !13
  %23 = load ptr, ptr %5, align 8, !tbaa !52
  %24 = getelementptr inbounds nuw %struct._zend_array, ptr %23, i32 0, i32 4
  %25 = load i32, ptr %24, align 8, !tbaa !93
  %26 = zext i32 %25 to i64
  %27 = getelementptr inbounds nuw %struct._Bucket, ptr %22, i64 %26
  store ptr %27, ptr %7, align 8, !tbaa !105
  %28 = load ptr, ptr %5, align 8, !tbaa !52
  %29 = getelementptr inbounds nuw %struct._zend_array, ptr %28, i32 0, i32 1
  %30 = load i32, ptr %29, align 8, !tbaa !13
  %31 = and i32 %30, 4
  %32 = icmp ne i32 %31, 0
  %33 = xor i1 %32, true
  call void @llvm.assume(i1 %33)
  br label %34

34:                                               ; preds = %65, %14
  %35 = load ptr, ptr %6, align 8, !tbaa !105
  %36 = load ptr, ptr %7, align 8, !tbaa !105
  %37 = icmp ne ptr %35, %36
  br i1 %37, label %38, label %68

38:                                               ; preds = %34
  call void @llvm.lifetime.start.p0(i64 8, ptr %8) #12
  %39 = load ptr, ptr %6, align 8, !tbaa !105
  %40 = getelementptr inbounds nuw %struct._Bucket, ptr %39, i32 0, i32 0
  store ptr %40, ptr %8, align 8, !tbaa !9
  %41 = load ptr, ptr %8, align 8, !tbaa !9
  %42 = call zeroext i8 @zval_get_type(ptr noundef %41)
  %43 = zext i8 %42 to i32
  %44 = icmp eq i32 %43, 0
  %45 = xor i1 %44, true
  %46 = xor i1 %45, true
  %47 = zext i1 %46 to i32
  %48 = sext i32 %47 to i64
  %49 = call i64 @llvm.expect.i64(i64 %48, i64 0)
  %50 = icmp ne i64 %49, 0
  br i1 %50, label %51, label %52

51:                                               ; preds = %38
  store i32 6, ptr %9, align 4
  br label %62

52:                                               ; preds = %38
  %53 = load ptr, ptr %8, align 8, !tbaa !9
  %54 = getelementptr inbounds nuw %struct._zval_struct, ptr %53, i32 0, i32 0
  %55 = load ptr, ptr %54, align 8, !tbaa !13
  store ptr %55, ptr %4, align 8, !tbaa !61
  %56 = load ptr, ptr %4, align 8, !tbaa !61
  %57 = load ptr, ptr %3, align 8, !tbaa !61
  %58 = call zeroext i1 @autoload_func_info_equals(ptr noundef %56, ptr noundef %57)
  br i1 %58, label %59, label %61

59:                                               ; preds = %52
  %60 = load ptr, ptr %6, align 8, !tbaa !105
  store ptr %60, ptr %2, align 8
  store i32 1, ptr %9, align 4
  br label %62

61:                                               ; preds = %52
  store i32 0, ptr %9, align 4
  br label %62

62:                                               ; preds = %61, %59, %51
  call void @llvm.lifetime.end.p0(i64 8, ptr %8) #12
  %63 = load i32, ptr %9, align 4
  switch i32 %63, label %69 [
    i32 0, label %64
    i32 6, label %65
  ]

64:                                               ; preds = %62
  br label %65

65:                                               ; preds = %64, %62
  %66 = load ptr, ptr %6, align 8, !tbaa !105
  %67 = getelementptr inbounds nuw %struct._Bucket, ptr %66, i32 1
  store ptr %67, ptr %6, align 8, !tbaa !105
  br label %34

68:                                               ; preds = %34
  store i32 0, ptr %9, align 4
  br label %69

69:                                               ; preds = %68, %62
  call void @llvm.lifetime.end.p0(i64 8, ptr %7) #12
  call void @llvm.lifetime.end.p0(i64 8, ptr %6) #12
  call void @llvm.lifetime.end.p0(i64 8, ptr %5) #12
  %70 = load i32, ptr %9, align 4
  switch i32 %70, label %74 [
    i32 0, label %71
  ]

71:                                               ; preds = %69
  br label %72

72:                                               ; preds = %71
  br label %73

73:                                               ; preds = %72
  store ptr null, ptr %2, align 8
  store i32 1, ptr %9, align 4
  br label %74

74:                                               ; preds = %73, %69
  call void @llvm.lifetime.end.p0(i64 8, ptr %4) #12
  br label %75

75:                                               ; preds = %74, %12
  %76 = load ptr, ptr %2, align 8
  ret ptr %76
}