; Function Attrs: nounwind uwtable
define internal fastcc ptr @spl_find_registered_function(ptr noundef readonly captures(none) %0) unnamed_addr #0 {
  %2 = load ptr, ptr @spl_autoload_functions, align 8, !tbaa !62
  %.not = icmp eq ptr %2, null
  br i1 %.not, label %.thread38, label %3

3:                                                ; preds = %1
  %4 = getelementptr inbounds nuw i8, ptr %2, i64 16
  %5 = load ptr, ptr %4, align 8, !tbaa !8
  %6 = getelementptr inbounds nuw i8, ptr %2, i64 24
  %7 = load i32, ptr %6, align 8, !tbaa !96
  %8 = zext i32 %7 to i64
  %9 = getelementptr inbounds nuw %struct._Bucket, ptr %5, i64 %8
  %10 = getelementptr inbounds nuw i8, ptr %2, i64 8
  %11 = load i32, ptr %10, align 8, !tbaa !8
  %12 = and i32 %11, 4
  %.not19 = icmp eq i32 %12, 0
  tail call void @llvm.assume(i1 %.not19)
  %.not2044 = icmp eq i32 %7, 0
  br i1 %.not2044, label %.thread38, label %.lr.ph

.lr.ph:                                           ; preds = %3
  %13 = getelementptr inbounds nuw i8, ptr %0, i64 8
  %14 = getelementptr inbounds nuw i8, ptr %0, i64 24
  %15 = getelementptr inbounds nuw i8, ptr %0, i64 16
  br label %16

16:                                               ; preds = %.lr.ph, %.thread
  %.01745 = phi ptr [ %5, %.lr.ph ], [ %74, %.thread ]
  %17 = getelementptr inbounds nuw i8, ptr %.01745, i64 8
  %18 = load i8, ptr %17, align 8, !tbaa !8
  %19 = icmp eq i8 %18, 0
  br i1 %19, label %.thread, label %20, !prof !84

20:                                               ; preds = %16
  %21 = load ptr, ptr %.01745, align 8, !tbaa !8
  %22 = load ptr, ptr %21, align 8, !tbaa !63
  %23 = getelementptr inbounds nuw i8, ptr %22, i64 4
  %24 = load i32, ptr %23, align 4, !tbaa !8
  %25 = and i32 %24, 262144
  %.not.i = icmp eq i32 %25, 0
  %.pre.i = load ptr, ptr %0, align 8, !tbaa !63
  br i1 %.not.i, label %.critedge.i, label %26

26:                                               ; preds = %20
  %27 = getelementptr inbounds nuw i8, ptr %.pre.i, i64 4
  %28 = load i32, ptr %27, align 4, !tbaa !8
  %29 = and i32 %28, 262144
  %.not19.i = icmp eq i32 %29, 0
  br i1 %.not19.i, label %.critedge.i, label %30, !prof !52

30:                                               ; preds = %26
  %31 = getelementptr inbounds nuw i8, ptr %21, i64 8
  %32 = load ptr, ptr %31, align 8, !tbaa !66
  %33 = load ptr, ptr %13, align 8, !tbaa !66
  %34 = icmp eq ptr %32, %33
  br i1 %34, label %35, label %.thread

35:                                               ; preds = %30
  %36 = getelementptr inbounds nuw i8, ptr %21, i64 24
  %37 = load ptr, ptr %36, align 8, !tbaa !67
  %38 = load ptr, ptr %14, align 8, !tbaa !67
  %39 = icmp eq ptr %37, %38
  br i1 %39, label %40, label %.thread

40:                                               ; preds = %35
  %41 = getelementptr inbounds nuw i8, ptr %21, i64 16
  %42 = load ptr, ptr %41, align 8, !tbaa !93
  %43 = load ptr, ptr %15, align 8, !tbaa !93
  %44 = icmp eq ptr %42, %43
  br i1 %44, label %45, label %.thread

45:                                               ; preds = %40
  %46 = getelementptr inbounds nuw i8, ptr %22, i64 8
  %47 = load ptr, ptr %46, align 8, !tbaa !8
  %48 = getelementptr inbounds nuw i8, ptr %.pre.i, i64 8
  %49 = load ptr, ptr %48, align 8, !tbaa !8
  %50 = icmp eq ptr %47, %49
  br i1 %50, label %.thread38, label %51

51:                                               ; preds = %45
  %52 = getelementptr inbounds nuw i8, ptr %47, i64 16
  %53 = load i64, ptr %52, align 8, !tbaa !55
  %54 = getelementptr inbounds nuw i8, ptr %49, i64 16
  %55 = load i64, ptr %54, align 8, !tbaa !55
  %56 = icmp eq i64 %53, %55
  br i1 %56, label %autoload_func_info_equals.exit, label %.thread

.critedge.i:                                      ; preds = %26, %20
  %57 = icmp eq ptr %22, %.pre.i
  br i1 %57, label %58, label %.thread

58:                                               ; preds = %.critedge.i
  %59 = getelementptr inbounds nuw i8, ptr %21, i64 8
  %60 = load ptr, ptr %59, align 8, !tbaa !66
  %61 = load ptr, ptr %13, align 8, !tbaa !66
  %62 = icmp eq ptr %60, %61
  br i1 %62, label %63, label %.thread

63:                                               ; preds = %58
  %64 = getelementptr inbounds nuw i8, ptr %21, i64 24
  %65 = load ptr, ptr %64, align 8, !tbaa !67
  %66 = load ptr, ptr %14, align 8, !tbaa !67
  %67 = icmp eq ptr %65, %66
  br i1 %67, label %68, label %.thread

68:                                               ; preds = %63
  %69 = getelementptr inbounds nuw i8, ptr %21, i64 16
  %70 = load ptr, ptr %69, align 8, !tbaa !93
  %71 = load ptr, ptr %15, align 8, !tbaa !93
  %72 = icmp eq ptr %70, %71
  %cond.fr28 = freeze i1 %72
  br i1 %cond.fr28, label %.thread38, label %.thread

autoload_func_info_equals.exit:                   ; preds = %51
  %73 = tail call zeroext i1 @zend_string_equal_val(ptr noundef nonnull %47, ptr noundef nonnull %49) #10
  %cond.fr = freeze i1 %73
  br i1 %cond.fr, label %.thread38, label %.thread

.thread:                                          ; preds = %autoload_func_info_equals.exit, %68, %40, %35, %30, %63, %58, %.critedge.i, %51, %16
  %74 = getelementptr inbounds nuw i8, ptr %.01745, i64 32
  %.not20 = icmp eq ptr %74, %9
  br i1 %.not20, label %.thread38, label %16

.thread38:                                        ; preds = %.thread, %45, %68, %autoload_func_info_equals.exit, %3, %1
  %.015 = phi ptr [ null, %1 ], [ null, %3 ], [ null, %.thread ], [ %.01745, %45 ], [ %.01745, %68 ], [ %.01745, %autoload_func_info_equals.exit ]
  ret ptr %.015
}